target datalayout = "e-m:e-p270:32:32-p271:32:32-p272:64:64-i64:64-i128:128-f80:128-n8:16:32:64-S128"
target triple = "x86_64-pc-linux-gnu"

%"class.std::__1::basic_string" = type { %"class.std::__1::__compressed_pair.1" }
%"class.std::__1::__compressed_pair.1" = type { %"struct.std::__1::__compressed_pair_elem.2" }
%"struct.std::__1::__compressed_pair_elem.2" = type { %"struct.std::__1::basic_string<char>::__rep" }
%"struct.std::__1::basic_string<char>::__rep" = type { %union.anon }
%union.anon = type { %"struct.std::__1::basic_string<char>::__long" }
%"struct.std::__1::basic_string<char>::__long" = type { %struct.anon.3, i64, ptr }
%struct.anon.3 = type { i64 }
%struct.stat = type { i64, i64, i64, i32, i32, i32, i32, i64, i64, i64, i64, %struct.timespec, %struct.timespec, %struct.timespec, [3 x i64] }
%struct.timespec = type { i64, i64 }
%"struct.std::__1::basic_string<char>::__short" = type { %struct.anon, [0 x i8], [23 x i8] }
%struct.anon = type { i8 }

; Function Attrs: mustprogress nounwind uwtable
define linkonce_odr hidden noundef nonnull align 8 dereferenceable(24) ptr @_ZNKSt3__122__compressed_pair_elemINS_12basic_stringIcNS_11char_traitsIcEENS_9allocatorIcEEE5__repELi0ELb0EE5__getB8ne190000Ev(ptr noundef nonnull align 8 dereferenceable(24) %0) #4 comdat align 2 {
  %2 = alloca ptr, align 8
  store ptr %0, ptr %2, align 8
  %3 = load ptr, ptr %2, align 8
  %4 = getelementptr inbounds %"struct.std::__1::__compressed_pair_elem.2", ptr %3, i32 0, i32 0
  ret ptr %4
}

; Function Attrs: mustprogress nounwind uwtable
define linkonce_odr hidden noundef ptr @_ZNSt3__114pointer_traitsIPKcE10pointer_toB8ne190000ERS1_(ptr noundef nonnull align 1 dereferenceable(1) %0) #4 comdat align 2 {
  %2 = alloca ptr, align 8
  store ptr %0, ptr %2, align 8
  %3 = load ptr, ptr %2, align 8
  ret ptr %3
}

; Function Attrs: mustprogress nounwind uwtable
define linkonce_odr hidden noundef nonnull align 8 dereferenceable(24) ptr @_ZNKSt3__117__compressed_pairINS_12basic_stringIcNS_11char_traitsIcEENS_9allocatorIcEEE5__repES5_E5firstB8ne190000Ev(ptr noundef nonnull align 8 dereferenceable(24) %0) #4 comdat align 2 {
  %2 = alloca ptr, align 8
  store ptr %0, ptr %2, align 8
  %3 = load ptr, ptr %2, align 8
  %4 = call noundef nonnull align 8 dereferenceable(24) ptr @_ZNKSt3__122__compressed_pair_elemINS_12basic_stringIcNS_11char_traitsIcEENS_9allocatorIcEEE5__repELi0ELb0EE5__getB8ne190000Ev(ptr noundef nonnull align 8 dereferenceable(24) %3) #14
  ret ptr %4
}

; Function Attrs: mustprogress nounwind uwtable
define linkonce_odr hidden noundef ptr @_ZNKSt3__112basic_stringIcNS_11char_traitsIcEENS_9allocatorIcEEE19__get_short_pointerB8ne190000Ev(ptr noundef nonnull align 8 dereferenceable(24) %0) #4 comdat align 2 {
  %2 = alloca ptr, align 8
  store ptr %0, ptr %2, align 8
  %3 = load ptr, ptr %2, align 8
  %4 = getelementptr inbounds %"class.std::__1::basic_string", ptr %3, i32 0, i32 0
  %5 = call noundef nonnull align 8 dereferenceable(24) ptr @_ZNKSt3__117__compressed_pairINS_12basic_stringIcNS_11char_traitsIcEENS_9allocatorIcEEE5__repES5_E5firstB8ne190000Ev(ptr noundef nonnull align 8 dereferenceable(24) %4) #14
  %6 = getelementptr inbounds %"struct.std::__1::basic_string<char>::__rep", ptr %5, i32 0, i32 0
  %7 = getelementptr inbounds %"struct.std::__1::basic_string<char>::__short", ptr %6, i32 0, i32 2
  %8 = getelementptr inbounds [23 x i8], ptr %7, i64 0, i64 0
  %9 = call noundef ptr @_ZNSt3__114pointer_traitsIPKcE10pointer_toB8ne190000ERS1_(ptr noundef nonnull align 1 dereferenceable(1) %8) #14
  ret ptr %9
}

; Function Attrs: mustprogress nounwind uwtable
define linkonce_odr hidden noundef ptr @_ZNKSt3__112basic_stringIcNS_11char_traitsIcEENS_9allocatorIcEEE18__get_long_pointerB8ne190000Ev(ptr noundef nonnull align 8 dereferenceable(24) %0) #4 comdat align 2 {
  %2 = alloca ptr, align 8
  store ptr %0, ptr %2, align 8
  %3 = load ptr, ptr %2, align 8
  %4 = getelementptr inbounds %"class.std::__1::basic_string", ptr %3, i32 0, i32 0
  %5 = call noundef nonnull align 8 dereferenceable(24) ptr @_ZNKSt3__117__compressed_pairINS_12basic_stringIcNS_11char_traitsIcEENS_9allocatorIcEEE5__repES5_E5firstB8ne190000Ev(ptr noundef nonnull align 8 dereferenceable(24) %4) #14
  %6 = getelementptr inbounds %"struct.std::__1::basic_string<char>::__rep", ptr %5, i32 0, i32 0
  %7 = getelementptr inbounds %"struct.std::__1::basic_string<char>::__long", ptr %6, i32 0, i32 2
  %8 = load ptr, ptr %7, align 8
  ret ptr %8
}

; Function Attrs: mustprogress nounwind uwtable
define linkonce_odr hidden noundef zeroext i1 @_ZNKSt3__112basic_stringIcNS_11char_traitsIcEENS_9allocatorIcEEE9__is_longB8ne190000Ev(ptr noundef nonnull align 8 dereferenceable(24) %0) #4 comdat align 2 {
  %2 = alloca ptr, align 8
  store ptr %0, ptr %2, align 8
  %3 = load ptr, ptr %2, align 8
  %4 = getelementptr inbounds %"class.std::__1::basic_string", ptr %3, i32 0, i32 0
  %5 = call noundef nonnull align 8 dereferenceable(24) ptr @_ZNKSt3__117__compressed_pairINS_12basic_stringIcNS_11char_traitsIcEENS_9allocatorIcEEE5__repES5_E5firstB8ne190000Ev(ptr noundef nonnull align 8 dereferenceable(24) %4) #14
  %6 = getelementptr inbounds %"struct.std::__1::basic_string<char>::__rep", ptr %5, i32 0, i32 0
  %7 = getelementptr inbounds %"struct.std::__1::basic_string<char>::__short", ptr %6, i32 0, i32 0
  %8 = load i8, ptr %7, align 8
  %9 = and i8 %8, 1
  %10 = icmp ne i8 %9, 0
  ret i1 %10
}

; Function Attrs: mustprogress nounwind uwtable
define linkonce_odr hidden noundef ptr @_ZNSt3__112__to_addressB8ne190000IKcEEPT_S3_(ptr noundef %0) #4 comdat {
  %2 = alloca ptr, align 8
  store ptr %0, ptr %2, align 8
  %3 = load ptr, ptr %2, align 8
  ret ptr %3
}

; Function Attrs: mustprogress nounwind uwtable
define linkonce_odr hidden noundef ptr @_ZNKSt3__112basic_stringIcNS_11char_traitsIcEENS_9allocatorIcEEE13__get_pointerB8ne190000Ev(ptr noundef nonnull align 8 dereferenceable(24) %0) #4 comdat align 2 {
  %2 = alloca ptr, align 8
  store ptr %0, ptr %2, align 8
  %3 = load ptr, ptr %2, align 8
  %4 = call noundef zeroext i1 @_ZNKSt3__112basic_stringIcNS_11char_traitsIcEENS_9allocatorIcEEE9__is_longB8ne190000Ev(ptr noundef nonnull align 8 dereferenceable(24) %3) #14
  br i1 %4, label %5, label %7

5:                                                ; preds = %1
  %6 = call noundef ptr @_ZNKSt3__112basic_stringIcNS_11char_traitsIcEENS_9allocatorIcEEE18__get_long_pointerB8ne190000Ev(ptr noundef nonnull align 8 dereferenceable(24) %3) #14
  br label %9

7:                                                ; preds = %1
  %8 = call noundef ptr @_ZNKSt3__112basic_stringIcNS_11char_traitsIcEENS_9allocatorIcEEE19__get_short_pointerB8ne190000Ev(ptr noundef nonnull align 8 dereferenceable(24) %3) #14
  br label %9

9:                                                ; preds = %7, %5
  %10 = phi ptr [ %6, %5 ], [ %8, %7 ]
  ret ptr %10
}

; Function Attrs: mustprogress nounwind uwtable
define linkonce_odr hidden noundef ptr @_ZNKSt3__112basic_stringIcNS_11char_traitsIcEENS_9allocatorIcEEE4dataB8ne190000Ev(ptr noundef nonnull align 8 dereferenceable(24) %0) #4 comdat align 2 {
  %2 = alloca ptr, align 8
  store ptr %0, ptr %2, align 8
  %3 = load ptr, ptr %2, align 8
  %4 = call noundef ptr @_ZNKSt3__112basic_stringIcNS_11char_traitsIcEENS_9allocatorIcEEE13__get_pointerB8ne190000Ev(ptr noundef nonnull align 8 dereferenceable(24) %3) #14
  %5 = call noundef ptr @_ZNSt3__112__to_addressB8ne190000IKcEEPT_S3_(ptr noundef %4) #14
  ret ptr %5
}

; Function Attrs: mustprogress nounwind uwtable
define linkonce_odr hidden noundef ptr @_ZNKSt3__112basic_stringIcNS_11char_traitsIcEENS_9allocatorIcEEE5c_strB8ne190000Ev(ptr noundef nonnull align 8 dereferenceable(24) %0) #4 comdat align 2 {
  %2 = alloca ptr, align 8
  store ptr %0, ptr %2, align 8
  %3 = load ptr, ptr %2, align 8
  %4 = call noundef ptr @_ZNKSt3__112basic_stringIcNS_11char_traitsIcEENS_9allocatorIcEEE4dataB8ne190000Ev(ptr noundef nonnull align 8 dereferenceable(24) %3) #14
  ret ptr %4
}

; Function Attrs: mustprogress nounwind uwtable
define linkonce_odr void @_ZNK7mitsuba10filesystem4path6nativeEv(ptr dead_on_unwind noalias writable sret(%"class.std::__1::basic_string") align 8 %0, ptr noundef nonnull align 8 dereferenceable(25) %1) #4 comdat align 2 personality ptr @__gxx_personality_v0 {
  %3 = alloca ptr, align 8
  %4 = alloca ptr, align 8
  store ptr %0, ptr %3, align 8
  store ptr %1, ptr %4, align 8
  %5 = load ptr, ptr %4, align 8
  invoke void @_ZNK7mitsuba10filesystem4path3strEv(ptr dead_on_unwind writable sret(%"class.std::__1::basic_string") align 8 %0, ptr noundef nonnull align 8 dereferenceable(25) %5)
          to label %6 unwind label %7

6:                                                ; preds = %2
  ret void

7:                                                ; preds = %2
  %8 = landingpad { ptr, i32 }
          catch ptr null
  %9 = extractvalue { ptr, i32 } %8, 0
  call void @__clang_call_terminate(ptr %9) #17
  unreachable
}

; Function Attrs: mustprogress nounwind uwtable
define noundef zeroext i1 @_ZN7mitsuba10filesystem12is_directoryERKNS0_4pathE(ptr noundef nonnull align 8 dereferenceable(25) %0) #4 {
  %2 = alloca i1, align 1
  %3 = alloca ptr, align 8
  %4 = alloca %struct.stat, align 8
  %5 = alloca %"class.std::__1::basic_string", align 8
  store ptr %0, ptr %3, align 8
  %6 = load ptr, ptr %3, align 8
  call void @_ZNK7mitsuba10filesystem4path6nativeEv(ptr dead_on_unwind writable sret(%"class.std::__1::basic_string") align 8 %5, ptr noundef nonnull align 8 dereferenceable(25) %6) #14
  %7 = call noundef ptr @_ZNKSt3__112basic_stringIcNS_11char_traitsIcEENS_9allocatorIcEEE5c_strB8ne190000Ev(ptr noundef nonnull align 8 dereferenceable(24) %5) #14
  %8 = call i32 @stat(ptr noundef %7, ptr noundef %4) #14
  %9 = icmp ne i32 %8, 0
  call void @_ZNSt3__112basic_stringIcNS_11char_traitsIcEENS_9allocatorIcEEED1Ev(ptr noundef nonnull align 8 dereferenceable(24) %5) #14
  br i1 %9, label %10, label %11

10:                                               ; preds = %1
  store i1 false, ptr %2, align 1
  br label %16

11:                                               ; preds = %1
  %12 = getelementptr inbounds %struct.stat, ptr %4, i32 0, i32 3
  %13 = load i32, ptr %12, align 8
  %14 = and i32 %13, 61440
  %15 = icmp eq i32 %14, 16384
  store i1 %15, ptr %2, align 1
  br label %16

16:                                               ; preds = %11, %10
  %17 = load i1, ptr %2, align 1
  ret i1 %17
}