; Function Attrs: mustprogress nounwind uwtable
define noundef zeroext i1 @_ZN7mitsuba10filesystem12is_directoryERKNS0_4pathE(ptr nocapture noundef nonnull readonly align 8 dereferenceable(25) %0) local_unnamed_addr #5 personality ptr @__gxx_personality_v0 {
  %2 = alloca %struct.stat, align 8
  %3 = alloca %"class.std::__1::basic_string", align 8
  invoke void @_ZNK7mitsuba10filesystem4path3strEv(ptr dead_on_unwind nonnull writable sret(%"class.std::__1::basic_string") align 8 %3, ptr noundef nonnull align 8 dereferenceable(25) %0)
          to label %_ZNK7mitsuba10filesystem4path6nativeEv.exit unwind label %4

4:                                                ; preds = %1
  %5 = landingpad { ptr, i32 }
          catch ptr null
  %6 = extractvalue { ptr, i32 } %5, 0
  call void @__clang_call_terminate(ptr %6) #19
  unreachable

_ZNK7mitsuba10filesystem4path6nativeEv.exit:      ; preds = %1
  %7 = load i8, ptr %3, align 8
  %8 = and i8 %7, 1
  %.not.i.i.i = icmp eq i8 %8, 0
  %9 = getelementptr inbounds i8, ptr %3, i64 16
  %10 = load ptr, ptr %9, align 8
  %11 = getelementptr inbounds i8, ptr %3, i64 1
  %12 = select i1 %.not.i.i.i, ptr %11, ptr %10
  %13 = call i32 @stat(ptr noundef %12, ptr noundef nonnull %2) #16
  %.not = icmp eq i32 %13, 0
  call void @_ZNSt3__112basic_stringIcNS_11char_traitsIcEENS_9allocatorIcEEED1Ev(ptr noundef nonnull align 8 dereferenceable(24) %3) #16
  %14 = getelementptr inbounds i8, ptr %2, i64 24
  %15 = load i32, ptr %14, align 8
  %16 = and i32 %15, 61440
  %17 = icmp eq i32 %16, 16384
  %.0 = select i1 %.not, i1 %17, i1 false
  ret i1 %.0
}